target datalayout = "e-m:e-p270:32:32-p271:32:32-p272:64:64-i64:64-i128:128-f80:128-n8:16:32:64-S128"
target triple = "x86_64-pc-linux-gnu"

%struct.expert_field = type { i32, i32 }

@ei_tiff_bad_entry = internal global %struct.expert_field zeroinitializer, align 4
@.str.235 = private unnamed_addr constant [39 x i8] c"Expected a single item; found %d items\00", align 1
@.str.236 = private unnamed_addr constant [44 x i8] c"Expected an unsigned integer, found type %s\00", align 1
@.str.237 = private unnamed_addr constant [8 x i8] c"Unknown\00", align 1

; Function Attrs: null_pointer_is_valid sspstrong uwtable
define internal void @dissect_tiff_single_uint(ptr noundef %0, ptr noundef %1, ptr noundef %2, i32 noundef %3, i16 noundef zeroext %4, i32 noundef %5, i32 noundef %6, i32 noundef %7) #0 {
  %9 = alloca ptr, align 8
  %10 = alloca ptr, align 8
  %11 = alloca ptr, align 8
  %12 = alloca i32, align 4
  %13 = alloca i16, align 2
  %14 = alloca i32, align 4
  %15 = alloca i32, align 4
  %16 = alloca i32, align 4
  store ptr %0, ptr %9, align 8
  store ptr %1, ptr %10, align 8
  store ptr %2, ptr %11, align 8
  store i32 %3, ptr %12, align 4
  store i16 %4, ptr %13, align 2
  store i32 %5, ptr %14, align 4
  store i32 %6, ptr %15, align 4
  store i32 %7, ptr %16, align 4
  %17 = load i32, ptr %14, align 4
  %18 = icmp ne i32 %17, 1
  br i1 %18, label %19, label %24

19:                                               ; preds = %8
  %20 = load ptr, ptr %10, align 8
  %21 = load ptr, ptr %11, align 8
  %22 = load i32, ptr %14, align 4
  %23 = call ptr (ptr, ptr, ptr, ptr, ...) @expert_add_info_format(ptr noundef %20, ptr noundef %21, ptr noundef @ei_tiff_bad_entry, ptr noundef @.str.235, i32 noundef %22)
  br label %66

24:                                               ; preds = %8
  %25 = load i16, ptr %13, align 2
  %26 = zext i16 %25 to i32
  %27 = icmp eq i32 %26, 1
  br i1 %27, label %28, label %35

28:                                               ; preds = %24
  %29 = load ptr, ptr %11, align 8
  %30 = load i32, ptr %16, align 4
  %31 = load ptr, ptr %9, align 8
  %32 = load i32, ptr %12, align 4
  %33 = load i32, ptr %15, align 4
  %34 = call ptr @proto_tree_add_item(ptr noundef %29, i32 noundef %30, ptr noundef %31, i32 noundef %32, i32 noundef 1, i32 noundef %33)
  br label %66

35:                                               ; preds = %24
  %36 = load i16, ptr %13, align 2
  %37 = zext i16 %36 to i32
  %38 = icmp eq i32 %37, 3
  br i1 %38, label %39, label %46

39:                                               ; preds = %35
  %40 = load ptr, ptr %11, align 8
  %41 = load i32, ptr %16, align 4
  %42 = load ptr, ptr %9, align 8
  %43 = load i32, ptr %12, align 4
  %44 = load i32, ptr %15, align 4
  %45 = call ptr @proto_tree_add_item(ptr noundef %40, i32 noundef %41, ptr noundef %42, i32 noundef %43, i32 noundef 2, i32 noundef %44)
  br label %65

46:                                               ; preds = %35
  %47 = load i16, ptr %13, align 2
  %48 = zext i16 %47 to i32
  %49 = icmp eq i32 %48, 4
  br i1 %49, label %50, label %57

50:                                               ; preds = %46
  %51 = load ptr, ptr %11, align 8
  %52 = load i32, ptr %16, align 4
  %53 = load ptr, ptr %9, align 8
  %54 = load i32, ptr %12, align 4
  %55 = load i32, ptr %15, align 4
  %56 = call ptr @proto_tree_add_item(ptr noundef %51, i32 noundef %52, ptr noundef %53, i32 noundef %54, i32 noundef 4, i32 noundef %55)
  br label %64

57:                                               ; preds = %46
  %58 = load ptr, ptr %10, align 8
  %59 = load ptr, ptr %11, align 8
  %60 = load i16, ptr %13, align 2
  %61 = zext i16 %60 to i32
  %62 = call ptr @val_to_str_const(i32 noundef %61, ptr noundef @tiff_type_names, ptr noundef @.str.237)
  %63 = call ptr (ptr, ptr, ptr, ptr, ...) @expert_add_info_format(ptr noundef %58, ptr noundef %59, ptr noundef @ei_tiff_bad_entry, ptr noundef @.str.236, ptr noundef %62)
  br label %64

64:                                               ; preds = %57, %50
  br label %65

65:                                               ; preds = %64, %39
  br label %66

66:                                               ; preds = %19, %65, %28
  ret void
}