; Function Attrs: null_pointer_is_valid sspstrong uwtable
define internal fastcc void @dissect_tiff_single_uint(ptr noundef %0, ptr noundef %1, ptr noundef %2, i32 noundef %3, i16 noundef zeroext %4, i32 noundef %5, i32 noundef range(i32 -2147483648, 1) %6, i32 noundef %7) unnamed_addr #0 {
  %.not = icmp eq i32 %5, 1
  br i1 %.not, label %11, label %9

9:                                                ; preds = %8
  %10 = tail call ptr (ptr, ptr, ptr, ptr, ...) @expert_add_info_format(ptr noundef %1, ptr noundef %2, ptr noundef nonnull @ei_tiff_bad_entry, ptr noundef nonnull @.str.235, i32 noundef %5)
  br label %22

11:                                               ; preds = %8
  switch i16 %4, label %18 [
    i16 1, label %12
    i16 3, label %14
    i16 4, label %16
  ]

12:                                               ; preds = %11
  %13 = tail call ptr @proto_tree_add_item(ptr noundef %2, i32 noundef %7, ptr noundef %0, i32 noundef %3, i32 noundef 1, i32 noundef %6)
  br label %22

14:                                               ; preds = %11
  %15 = tail call ptr @proto_tree_add_item(ptr noundef %2, i32 noundef %7, ptr noundef %0, i32 noundef %3, i32 noundef 2, i32 noundef %6)
  br label %22

16:                                               ; preds = %11
  %17 = tail call ptr @proto_tree_add_item(ptr noundef %2, i32 noundef %7, ptr noundef %0, i32 noundef %3, i32 noundef 4, i32 noundef %6)
  br label %22

18:                                               ; preds = %11
  %19 = zext i16 %4 to i32
  %20 = tail call ptr @val_to_str_const(i32 noundef %19, ptr noundef nonnull @tiff_type_names, ptr noundef nonnull @.str.237)
  %21 = tail call ptr (ptr, ptr, ptr, ptr, ...) @expert_add_info_format(ptr noundef %1, ptr noundef %2, ptr noundef nonnull @ei_tiff_bad_entry, ptr noundef nonnull @.str.236, ptr noundef %20)
  br label %22

22:                                               ; preds = %14, %18, %16, %12, %9
  ret void
}